target datalayout = "e-m:e-p270:32:32-p271:32:32-p272:64:64-i64:64-i128:128-f80:128-n8:16:32:64-S128"
target triple = "x86_64-pc-linux-gnu"

%"class.cv::MatOp" = type { ptr }
%"class.cv::MatOp_AddEx" = type { %"class.cv::MatOp" }
%"class.cv::MatExpr" = type { ptr, i32, %"class.cv::Mat", %"class.cv::Mat", %"class.cv::Mat", double, double, %"class.cv::Scalar_" }
%"class.cv::Mat" = type { i32, i32, i32, i32, ptr, ptr, ptr, ptr, ptr, ptr, %"struct.cv::MatSize", %"struct.cv::MatStep" }
%"struct.cv::MatSize" = type { ptr }
%"struct.cv::MatStep" = type { ptr, [2 x i64] }
%"class.cv::Scalar_" = type { %"class.cv::Vec" }
%"class.cv::Vec" = type { %"class.cv::Matx" }
%"class.cv::Matx" = type { [4 x double] }
%"class.cv::utils::trace::details::Region" = type <{ ptr, i32, [4 x i8] }>

@_ZN2cvL13g_MatOp_AddExE = internal global %"class.cv::MatOp_AddEx" zeroinitializer, align 8

; Function Attrs: mustprogress nounwind uwtable
define linkonce_odr hidden void @_ZN2cv4MatxIdLi4ELi1EEC2Ev(ptr noundef nonnull align 8 dereferenceable(32) %0) unnamed_addr #4 comdat align 2 {
  %2 = alloca ptr, align 8
  %3 = alloca i32, align 4
  store ptr %0, ptr %2, align 8
  %4 = load ptr, ptr %2, align 8
  store i32 0, ptr %3, align 4
  br label %5

5:                                                ; preds = %13, %1
  %6 = load i32, ptr %3, align 4
  %7 = icmp slt i32 %6, 4
  br i1 %7, label %8, label %16

8:                                                ; preds = %5
  %9 = getelementptr inbounds %"class.cv::Matx", ptr %4, i32 0, i32 0
  %10 = load i32, ptr %3, align 4
  %11 = sext i32 %10 to i64
  %12 = getelementptr inbounds [4 x double], ptr %9, i64 0, i64 %11
  store double 0.000000e+00, ptr %12, align 8
  br label %13

13:                                               ; preds = %8
  %14 = load i32, ptr %3, align 4
  %15 = add nsw i32 %14, 1
  store i32 %15, ptr %3, align 4
  br label %5, !llvm.loop !7

16:                                               ; preds = %5
  ret void
}

; Function Attrs: mustprogress uwtable
define linkonce_odr hidden void @_ZN2cv3VecIdLi4EEC2Ev(ptr noundef nonnull align 8 dereferenceable(32) %0) unnamed_addr #6 comdat align 2 {
  %2 = alloca ptr, align 8
  store ptr %0, ptr %2, align 8
  %3 = load ptr, ptr %2, align 8
  call void @_ZN2cv4MatxIdLi4ELi1EEC2Ev(ptr noundef nonnull align 8 dereferenceable(32) %3)
  ret void
}

; Function Attrs: mustprogress nounwind uwtable
define internal noundef zeroext i1 @_ZN2cveqIdEEbRKNS_7Scalar_IT_EES5_(ptr noundef nonnull align 8 dereferenceable(32) %0, ptr noundef nonnull align 8 dereferenceable(32) %1) #4 {
  %3 = alloca ptr, align 8
  %4 = alloca ptr, align 8
  store ptr %0, ptr %3, align 8
  store ptr %1, ptr %4, align 8
  %5 = load ptr, ptr %3, align 8
  %6 = getelementptr inbounds %"class.cv::Matx", ptr %5, i32 0, i32 0
  %7 = getelementptr inbounds [4 x double], ptr %6, i64 0, i64 0
  %8 = load double, ptr %7, align 8
  %9 = load ptr, ptr %4, align 8
  %10 = getelementptr inbounds %"class.cv::Matx", ptr %9, i32 0, i32 0
  %11 = getelementptr inbounds [4 x double], ptr %10, i64 0, i64 0
  %12 = load double, ptr %11, align 8
  %13 = fcmp oeq double %8, %12
  br i1 %13, label %14, label %44

14:                                               ; preds = %2
  %15 = load ptr, ptr %3, align 8
  %16 = getelementptr inbounds %"class.cv::Matx", ptr %15, i32 0, i32 0
  %17 = getelementptr inbounds [4 x double], ptr %16, i64 0, i64 1
  %18 = load double, ptr %17, align 8
  %19 = load ptr, ptr %4, align 8
  %20 = getelementptr inbounds %"class.cv::Matx", ptr %19, i32 0, i32 0
  %21 = getelementptr inbounds [4 x double], ptr %20, i64 0, i64 1
  %22 = load double, ptr %21, align 8
  %23 = fcmp oeq double %18, %22
  br i1 %23, label %24, label %44

24:                                               ; preds = %14
  %25 = load ptr, ptr %3, align 8
  %26 = getelementptr inbounds %"class.cv::Matx", ptr %25, i32 0, i32 0
  %27 = getelementptr inbounds [4 x double], ptr %26, i64 0, i64 2
  %28 = load double, ptr %27, align 8
  %29 = load ptr, ptr %4, align 8
  %30 = getelementptr inbounds %"class.cv::Matx", ptr %29, i32 0, i32 0
  %31 = getelementptr inbounds [4 x double], ptr %30, i64 0, i64 2
  %32 = load double, ptr %31, align 8
  %33 = fcmp oeq double %28, %32
  br i1 %33, label %34, label %44

34:                                               ; preds = %24
  %35 = load ptr, ptr %3, align 8
  %36 = getelementptr inbounds %"class.cv::Matx", ptr %35, i32 0, i32 0
  %37 = getelementptr inbounds [4 x double], ptr %36, i64 0, i64 3
  %38 = load double, ptr %37, align 8
  %39 = load ptr, ptr %4, align 8
  %40 = getelementptr inbounds %"class.cv::Matx", ptr %39, i32 0, i32 0
  %41 = getelementptr inbounds [4 x double], ptr %40, i64 0, i64 3
  %42 = load double, ptr %41, align 8
  %43 = fcmp oeq double %38, %42
  br label %44

44:                                               ; preds = %34, %24, %14, %2
  %45 = phi i1 [ false, %24 ], [ false, %14 ], [ false, %2 ], [ %43, %34 ]
  ret i1 %45
}

; Function Attrs: mustprogress uwtable
define linkonce_odr hidden void @_ZN2cv7Scalar_IdEC2Ev(ptr noundef nonnull align 8 dereferenceable(32) %0) unnamed_addr #6 comdat align 2 {
  %2 = alloca ptr, align 8
  store ptr %0, ptr %2, align 8
  %3 = load ptr, ptr %2, align 8
  call void @_ZN2cv3VecIdLi4EEC2Ev(ptr noundef nonnull align 8 dereferenceable(32) %3)
  %4 = getelementptr inbounds %"class.cv::Matx", ptr %3, i32 0, i32 0
  %5 = getelementptr inbounds [4 x double], ptr %4, i64 0, i64 3
  store double 0.000000e+00, ptr %5, align 8
  %6 = getelementptr inbounds %"class.cv::Matx", ptr %3, i32 0, i32 0
  %7 = getelementptr inbounds [4 x double], ptr %6, i64 0, i64 2
  store double 0.000000e+00, ptr %7, align 8
  %8 = getelementptr inbounds %"class.cv::Matx", ptr %3, i32 0, i32 0
  %9 = getelementptr inbounds [4 x double], ptr %8, i64 0, i64 1
  store double 0.000000e+00, ptr %9, align 8
  %10 = getelementptr inbounds %"class.cv::Matx", ptr %3, i32 0, i32 0
  %11 = getelementptr inbounds [4 x double], ptr %10, i64 0, i64 0
  store double 0.000000e+00, ptr %11, align 8
  ret void
}

; Function Attrs: mustprogress nounwind uwtable
define internal noundef zeroext i1 @_ZN2cvL7isAddExERKNS_7MatExprE(ptr noundef nonnull align 8 dereferenceable(352) %0) #4 {
  %2 = alloca ptr, align 8
  store ptr %0, ptr %2, align 8
  %3 = load ptr, ptr %2, align 8
  %4 = getelementptr inbounds %"class.cv::MatExpr", ptr %3, i32 0, i32 0
  %5 = load ptr, ptr %4, align 8
  %6 = icmp eq ptr %5, @_ZN2cvL13g_MatOp_AddExE
  ret i1 %6
}

; Function Attrs: mustprogress uwtable
define internal noundef zeroext i1 @_ZN2cvL8isScaledERKNS_7MatExprE(ptr noundef nonnull align 8 dereferenceable(352) %0) #6 {
  %2 = alloca ptr, align 8
  %3 = alloca %"class.cv::Scalar_", align 8
  store ptr %0, ptr %2, align 8
  %4 = load ptr, ptr %2, align 8
  %5 = call noundef zeroext i1 @_ZN2cvL7isAddExERKNS_7MatExprE(ptr noundef nonnull align 8 dereferenceable(352) %4)
  br i1 %5, label %6, label %21

6:                                                ; preds = %1
  %7 = load ptr, ptr %2, align 8
  %8 = getelementptr inbounds %"class.cv::MatExpr", ptr %7, i32 0, i32 3
  %9 = getelementptr inbounds %"class.cv::Mat", ptr %8, i32 0, i32 4
  %10 = load ptr, ptr %9, align 8
  %11 = icmp ne ptr %10, null
  br i1 %11, label %12, label %17

12:                                               ; preds = %6
  %13 = load ptr, ptr %2, align 8
  %14 = getelementptr inbounds %"class.cv::MatExpr", ptr %13, i32 0, i32 6
  %15 = load double, ptr %14, align 8
  %16 = fcmp oeq double %15, 0.000000e+00
  br i1 %16, label %17, label %21

17:                                               ; preds = %12, %6
  %18 = load ptr, ptr %2, align 8
  %19 = getelementptr inbounds %"class.cv::MatExpr", ptr %18, i32 0, i32 7
  call void @_ZN2cv7Scalar_IdEC2Ev(ptr noundef nonnull align 8 dereferenceable(32) %3)
  %20 = call noundef zeroext i1 @_ZN2cveqIdEEbRKNS_7Scalar_IT_EES5_(ptr noundef nonnull align 8 dereferenceable(32) %19, ptr noundef nonnull align 8 dereferenceable(32) %3)
  br label %21

21:                                               ; preds = %17, %12, %1
  %22 = phi i1 [ false, %12 ], [ false, %1 ], [ %20, %17 ]
  ret i1 %22
}

; Function Attrs: mustprogress uwtable
define hidden void @_ZNK2cv11MatOp_AddEx9transposeERKNS_7MatExprERS1_(ptr noundef nonnull align 8 dereferenceable(8) %0, ptr noundef nonnull align 8 dereferenceable(352) %1, ptr noundef nonnull align 8 dereferenceable(352) %2) unnamed_addr #6 align 2 personality ptr @__gxx_personality_v0 {
  %4 = alloca ptr, align 8
  %5 = alloca ptr, align 8
  %6 = alloca ptr, align 8
  %7 = alloca %"class.cv::utils::trace::details::Region", align 8
  %8 = alloca ptr, align 8
  %9 = alloca i32, align 4
  store ptr %0, ptr %4, align 8
  store ptr %1, ptr %5, align 8
  store ptr %2, ptr %6, align 8
  %10 = load ptr, ptr %4, align 8
  call void @_ZN2cv5utils5trace7details6RegionC1ERKNS3_21LocationStaticStorageE(ptr noundef nonnull align 8 dereferenceable(12) %7, ptr noundef nonnull align 8 dereferenceable(32) @_ZZNK2cv11MatOp_AddEx9transposeERKNS_7MatExprERS1_E26__cv_trace_location_fn1395)
  %11 = load ptr, ptr %5, align 8
  %12 = invoke noundef zeroext i1 @_ZN2cvL8isScaledERKNS_7MatExprE(ptr noundef nonnull align 8 dereferenceable(352) %11)
          to label %13 unwind label %22

13:                                               ; preds = %3
  br i1 %12, label %14, label %26

14:                                               ; preds = %13
  %15 = load ptr, ptr %6, align 8
  %16 = load ptr, ptr %5, align 8
  %17 = getelementptr inbounds %"class.cv::MatExpr", ptr %16, i32 0, i32 2
  %18 = load ptr, ptr %5, align 8
  %19 = getelementptr inbounds %"class.cv::MatExpr", ptr %18, i32 0, i32 5
  %20 = load double, ptr %19, align 8
  invoke void @_ZN2cv7MatOp_T8makeExprERNS_7MatExprERKNS_3MatEd(ptr noundef nonnull align 8 dereferenceable(352) %15, ptr noundef nonnull align 8 dereferenceable(96) %17, double noundef %20)
          to label %21 unwind label %22

21:                                               ; preds = %14
  br label %30

22:                                               ; preds = %26, %14, %3
  %23 = landingpad { ptr, i32 }
          cleanup
  %24 = extractvalue { ptr, i32 } %23, 0
  store ptr %24, ptr %8, align 8
  %25 = extractvalue { ptr, i32 } %23, 1
  store i32 %25, ptr %9, align 4
  call void @_ZN2cv5utils5trace7details6RegionD2Ev(ptr noundef nonnull align 8 dereferenceable(12) %7) #3
  br label %31

26:                                               ; preds = %13
  %27 = load ptr, ptr %5, align 8
  %28 = load ptr, ptr %6, align 8
  invoke void @_ZNK2cv5MatOp9transposeERKNS_7MatExprERS1_(ptr noundef nonnull align 8 dereferenceable(8) %10, ptr noundef nonnull align 8 dereferenceable(352) %27, ptr noundef nonnull align 8 dereferenceable(352) %28)
          to label %29 unwind label %22

29:                                               ; preds = %26
  br label %30

30:                                               ; preds = %29, %21
  call void @_ZN2cv5utils5trace7details6RegionD2Ev(ptr noundef nonnull align 8 dereferenceable(12) %7) #3
  ret void

31:                                               ; preds = %22
  %32 = load ptr, ptr %8, align 8
  %33 = load i32, ptr %9, align 4
  %34 = insertvalue { ptr, i32 } poison, ptr %32, 0
  %35 = insertvalue { ptr, i32 } %34, i32 %33, 1
  resume { ptr, i32 } %35
}