; Function Attrs: mustprogress uwtable
define hidden void @_ZNK2cv11MatOp_AddEx9transposeERKNS_7MatExprERS1_(ptr nocapture nonnull readnone align 8 %0, ptr noundef nonnull align 8 dereferenceable(352) %1, ptr noundef nonnull align 8 dereferenceable(352) %2) unnamed_addr #8 align 2 personality ptr @__gxx_personality_v0 {
  %4 = alloca %"class.cv::utils::trace::details::Region", align 8
  call void @_ZN2cv5utils5trace7details6RegionC1ERKNS3_21LocationStaticStorageE(ptr noundef nonnull align 8 dereferenceable(12) %4, ptr noundef nonnull align 8 dereferenceable(32) @_ZZNK2cv11MatOp_AddEx9transposeERKNS_7MatExprERS1_E26__cv_trace_location_fn1395)
  %.val.i = load ptr, ptr %1, align 8
  %5 = icmp eq ptr %.val.i, @_ZN2cvL13g_MatOp_AddExE
  br i1 %5, label %6, label %_ZN2cvL8isScaledERKNS_7MatExprE.exit.thread

6:                                                ; preds = %3
  %7 = getelementptr inbounds i8, ptr %1, i64 128
  %8 = load ptr, ptr %7, align 8
  %.not.i = icmp eq ptr %8, null
  %9 = getelementptr inbounds i8, ptr %1, i64 312
  %10 = load double, ptr %9, align 8
  %11 = fcmp oeq double %10, 0.000000e+00
  %or.cond.i = select i1 %.not.i, i1 true, i1 %11
  br i1 %or.cond.i, label %12, label %_ZN2cvL8isScaledERKNS_7MatExprE.exit.thread

12:                                               ; preds = %6
  %13 = getelementptr inbounds i8, ptr %1, i64 320
  %14 = load <4 x double>, ptr %13, align 8
  %.fr = freeze <4 x double> %14
  %15 = fcmp une <4 x double> %.fr, zeroinitializer
  %16 = bitcast <4 x i1> %15 to i4
  %17 = icmp eq i4 %16, 0
  br i1 %17, label %18, label %_ZN2cvL8isScaledERKNS_7MatExprE.exit.thread

18:                                               ; preds = %12
  %19 = getelementptr inbounds i8, ptr %1, i64 16
  %20 = getelementptr inbounds i8, ptr %1, i64 304
  %21 = load double, ptr %20, align 8
  invoke void @_ZN2cv7MatOp_T8makeExprERNS_7MatExprERKNS_3MatEd(ptr noundef nonnull align 8 dereferenceable(352) %2, ptr noundef nonnull align 8 dereferenceable(96) %19, double noundef %21)
          to label %24 unwind label %22

22:                                               ; preds = %_ZN2cvL8isScaledERKNS_7MatExprE.exit.thread, %18
  %23 = landingpad { ptr, i32 }
          cleanup
  call void @_ZN2cv5utils5trace7details6RegionD2Ev(ptr noundef nonnull align 8 dereferenceable(12) %4) #21
  resume { ptr, i32 } %23

_ZN2cvL8isScaledERKNS_7MatExprE.exit.thread:      ; preds = %12, %6, %3
  invoke void @_ZNK2cv5MatOp9transposeERKNS_7MatExprERS1_(ptr nonnull align 8 poison, ptr noundef nonnull align 8 dereferenceable(352) %1, ptr noundef nonnull align 8 dereferenceable(352) %2)
          to label %24 unwind label %22

24:                                               ; preds = %_ZN2cvL8isScaledERKNS_7MatExprE.exit.thread, %18
  %25 = getelementptr inbounds i8, ptr %4, i64 8
  %26 = load i32, ptr %25, align 8
  %.not.i8 = icmp eq i32 %26, 0
  br i1 %.not.i8, label %_ZN2cv5utils5trace7details6RegionD2Ev.exit, label %27

27:                                               ; preds = %24
  invoke void @_ZN2cv5utils5trace7details6Region7destroyEv(ptr noundef nonnull align 8 dereferenceable(12) %4)
          to label %_ZN2cv5utils5trace7details6RegionD2Ev.exit unwind label %28

28:                                               ; preds = %27
  %29 = landingpad { ptr, i32 }
          catch ptr null
  %30 = extractvalue { ptr, i32 } %29, 0
  call void @__clang_call_terminate(ptr %30) #20
  unreachable

_ZN2cv5utils5trace7details6RegionD2Ev.exit:       ; preds = %24, %27
  ret void
}